target datalayout = "e-m:e-p270:32:32-p271:32:32-p272:64:64-i64:64-i128:128-f80:128-n8:16:32:64-S128"
target triple = "x86_64-pc-linux-gnu"

%union.anon.1 = type { i64 }

@.str.3 = private unnamed_addr constant [37 x i8] c"PMIX ERROR: %s in file %s at line %d\00", align 1
@.str.4 = private unnamed_addr constant [17 x i8] c"psquash_native.c\00", align 1

; Function Attrs: inlinehint nounwind willreturn memory(none) uwtable
define internal i64 @pmix_ntoh64(i64 noundef %0) #5 {
  %2 = alloca i64, align 8
  %3 = alloca i64, align 8
  %4 = alloca %union.anon.1, align 8
  %5 = alloca %union.anon.1, align 8
  %6 = alloca i32, align 4
  store i64 %0, ptr %3, align 8, !tbaa !38
  call void @llvm.lifetime.start.p0(i64 8, ptr %4) #6
  call void @llvm.lifetime.start.p0(i64 8, ptr %5) #6
  %7 = call i32 @__bswap_32(i32 noundef 1)
  %8 = zext i32 %7 to i64
  %9 = icmp eq i64 %8, 1
  br i1 %9, label %10, label %12

10:                                               ; preds = %1
  %11 = load i64, ptr %3, align 8, !tbaa !38
  store i64 %11, ptr %2, align 8
  store i32 1, ptr %6, align 4
  br label %23

12:                                               ; preds = %1
  %13 = load i64, ptr %3, align 8, !tbaa !38
  store i64 %13, ptr %4, align 8, !tbaa !40
  %14 = getelementptr inbounds [2 x i32], ptr %4, i64 0, i64 1
  %15 = load i32, ptr %14, align 4, !tbaa !40
  %16 = call i32 @__bswap_32(i32 noundef %15)
  %17 = getelementptr inbounds [2 x i32], ptr %5, i64 0, i64 0
  store i32 %16, ptr %17, align 8, !tbaa !40
  %18 = getelementptr inbounds [2 x i32], ptr %4, i64 0, i64 0
  %19 = load i32, ptr %18, align 8, !tbaa !40
  %20 = call i32 @__bswap_32(i32 noundef %19)
  %21 = getelementptr inbounds [2 x i32], ptr %5, i64 0, i64 1
  store i32 %20, ptr %21, align 4, !tbaa !40
  %22 = load i64, ptr %5, align 8, !tbaa !40
  store i64 %22, ptr %2, align 8
  store i32 1, ptr %6, align 4
  br label %23

23:                                               ; preds = %12, %10
  call void @llvm.lifetime.end.p0(i64 8, ptr %5) #6
  call void @llvm.lifetime.end.p0(i64 8, ptr %4) #6
  %24 = load i64, ptr %2, align 8
  ret i64 %24
}

; Function Attrs: inlinehint nounwind uwtable
define internal i32 @__bswap_32(i32 noundef %0) #4 {
  %2 = alloca i32, align 4
  store i32 %0, ptr %2, align 4, !tbaa !37
  %3 = load i32, ptr %2, align 4, !tbaa !37
  %4 = and i32 %3, -16777216
  %5 = lshr i32 %4, 24
  %6 = load i32, ptr %2, align 4, !tbaa !37
  %7 = and i32 %6, 16711680
  %8 = lshr i32 %7, 8
  %9 = or i32 %5, %8
  %10 = load i32, ptr %2, align 4, !tbaa !37
  %11 = and i32 %10, 65280
  %12 = shl i32 %11, 8
  %13 = or i32 %9, %12
  %14 = load i32, ptr %2, align 4, !tbaa !37
  %15 = and i32 %14, 255
  %16 = shl i32 %15, 24
  %17 = or i32 %13, %16
  ret i32 %17
}

; Function Attrs: inlinehint nounwind uwtable
define internal zeroext i16 @__bswap_16(i16 noundef zeroext %0) #4 {
  %2 = alloca i16, align 2
  store i16 %0, ptr %2, align 2, !tbaa !35
  %3 = load i16, ptr %2, align 2, !tbaa !35
  %4 = zext i16 %3 to i32
  %5 = ashr i32 %4, 8
  %6 = and i32 %5, 255
  %7 = load i16, ptr %2, align 2, !tbaa !35
  %8 = zext i16 %7 to i32
  %9 = and i32 %8, 255
  %10 = shl i32 %9, 8
  %11 = or i32 %6, %10
  %12 = trunc i32 %11 to i16
  ret i16 %12
}

; Function Attrs: nounwind uwtable
define internal i32 @native_decode_int(i16 noundef zeroext %0, ptr noundef %1, i64 noundef %2, ptr noundef %3, ptr noundef %4) #0 {
  %6 = alloca i32, align 4
  %7 = alloca i16, align 2
  %8 = alloca ptr, align 8
  %9 = alloca i64, align 8
  %10 = alloca ptr, align 8
  %11 = alloca ptr, align 8
  %12 = alloca i32, align 4
  %13 = alloca i64, align 8
  %14 = alloca i64, align 8
  %15 = alloca i32, align 4
  %16 = alloca i16, align 2
  %17 = alloca i32, align 4
  %18 = alloca i64, align 8
  store i16 %0, ptr %7, align 2, !tbaa !35
  store ptr %1, ptr %8, align 8, !tbaa !39
  store i64 %2, ptr %9, align 8, !tbaa !38
  store ptr %3, ptr %10, align 8, !tbaa !39
  store ptr %4, ptr %11, align 8, !tbaa !36
  call void @llvm.lifetime.start.p0(i64 4, ptr %12) #6
  call void @llvm.lifetime.start.p0(i64 8, ptr %13) #6
  store i64 0, ptr %13, align 8, !tbaa !38
  call void @llvm.lifetime.start.p0(i64 8, ptr %14) #6
  br label %19

19:                                               ; preds = %5
  store i32 0, ptr %12, align 4, !tbaa !37
  %20 = load i16, ptr %7, align 2, !tbaa !35
  %21 = zext i16 %20 to i32
  switch i32 %21, label %26 [
    i32 8, label %22
    i32 13, label %22
    i32 6, label %23
    i32 9, label %23
    i32 11, label %23
    i32 14, label %23
    i32 10, label %24
    i32 15, label %24
    i32 4, label %25
  ]

22:                                               ; preds = %19, %19
  store i64 2, ptr %14, align 8, !tbaa !38
  br label %27

23:                                               ; preds = %19, %19, %19, %19
  store i64 4, ptr %14, align 8, !tbaa !38
  br label %27

24:                                               ; preds = %19, %19
  store i64 8, ptr %14, align 8, !tbaa !38
  br label %27

25:                                               ; preds = %19
  store i64 8, ptr %14, align 8, !tbaa !38
  br label %27

26:                                               ; preds = %19
  store i32 -27, ptr %12, align 4, !tbaa !37
  br label %27

27:                                               ; preds = %26, %25, %24, %23, %22
  br label %28

28:                                               ; preds = %27
  br label %29

29:                                               ; preds = %28
  %30 = load i32, ptr %12, align 4, !tbaa !37
  %31 = icmp ne i32 0, %30
  br i1 %31, label %32, label %43

32:                                               ; preds = %29
  br label %33

33:                                               ; preds = %32
  %34 = load i32, ptr %12, align 4, !tbaa !37
  %35 = icmp ne i32 -2, %34
  br i1 %35, label %36, label %39

36:                                               ; preds = %33
  %37 = load i32, ptr %12, align 4, !tbaa !37
  %38 = call ptr @PMIx_Error_string(i32 noundef %37)
  call void (i32, ptr, ...) @pmix_output(i32 noundef 0, ptr noundef @.str.3, ptr noundef %38, ptr noundef @.str.4, i32 noundef 163)
  br label %39

39:                                               ; preds = %36, %33
  br label %40

40:                                               ; preds = %39
  br label %41

41:                                               ; preds = %40
  %42 = load i32, ptr %12, align 4, !tbaa !37
  store i32 %42, ptr %6, align 4
  store i32 1, ptr %15, align 4
  br label %92

43:                                               ; preds = %29
  %44 = load i64, ptr %9, align 8, !tbaa !38
  %45 = load i64, ptr %14, align 8, !tbaa !38
  %46 = icmp ne i64 %44, %45
  br i1 %46, label %47, label %48

47:                                               ; preds = %43
  store i32 -20, ptr %12, align 4, !tbaa !37
  br label %48

48:                                               ; preds = %47, %43
  %49 = load ptr, ptr %8, align 8, !tbaa !39
  %50 = load i64, ptr %14, align 8, !tbaa !38
  call void @llvm.memcpy.p0.p0.i64(ptr align 8 %13, ptr align 1 %49, i64 %50, i1 false)
  br label %51

51:                                               ; preds = %48
  store i32 0, ptr %12, align 4, !tbaa !37
  %52 = load i16, ptr %7, align 2, !tbaa !35
  %53 = zext i16 %52 to i32
  switch i32 %53, label %70 [
    i32 8, label %54
    i32 13, label %54
    i32 6, label %60
    i32 11, label %60
    i32 9, label %60
    i32 14, label %60
    i32 10, label %66
    i32 4, label %66
    i32 15, label %66
  ]

54:                                               ; preds = %51, %51
  call void @llvm.lifetime.start.p0(i64 2, ptr %16) #6
  %55 = load i64, ptr %13, align 8, !tbaa !38
  %56 = trunc i64 %55 to i16
  store i16 %56, ptr %16, align 2, !tbaa !35
  %57 = load i16, ptr %16, align 2, !tbaa !35
  %58 = call zeroext i16 @__bswap_16(i16 noundef zeroext %57)
  %59 = zext i16 %58 to i64
  store i64 %59, ptr %13, align 8, !tbaa !38
  store i32 9, ptr %15, align 4
  call void @llvm.lifetime.end.p0(i64 2, ptr %16) #6
  br label %71

60:                                               ; preds = %51, %51, %51, %51
  call void @llvm.lifetime.start.p0(i64 4, ptr %17) #6
  %61 = load i64, ptr %13, align 8, !tbaa !38
  %62 = trunc i64 %61 to i32
  store i32 %62, ptr %17, align 4, !tbaa !37
  %63 = load i32, ptr %17, align 4, !tbaa !37
  %64 = call i32 @__bswap_32(i32 noundef %63)
  %65 = zext i32 %64 to i64
  store i64 %65, ptr %13, align 8, !tbaa !38
  store i32 9, ptr %15, align 4
  call void @llvm.lifetime.end.p0(i64 4, ptr %17) #6
  br label %71

66:                                               ; preds = %51, %51, %51
  call void @llvm.lifetime.start.p0(i64 8, ptr %18) #6
  %67 = load i64, ptr %13, align 8, !tbaa !38
  store i64 %67, ptr %18, align 8, !tbaa !38
  %68 = load i64, ptr %18, align 8, !tbaa !38
  %69 = call i64 @pmix_ntoh64(i64 noundef %68) #7
  store i64 %69, ptr %13, align 8, !tbaa !38
  store i32 9, ptr %15, align 4
  call void @llvm.lifetime.end.p0(i64 8, ptr %18) #6
  br label %71

70:                                               ; preds = %51
  store i32 -27, ptr %12, align 4, !tbaa !37
  br label %71

71:                                               ; preds = %70, %66, %60, %54
  br label %72

72:                                               ; preds = %71
  br label %73

73:                                               ; preds = %72
  %74 = load i32, ptr %12, align 4, !tbaa !37
  %75 = icmp ne i32 0, %74
  br i1 %75, label %76, label %87

76:                                               ; preds = %73
  br label %77

77:                                               ; preds = %76
  %78 = load i32, ptr %12, align 4, !tbaa !37
  %79 = icmp ne i32 -2, %78
  br i1 %79, label %80, label %83

80:                                               ; preds = %77
  %81 = load i32, ptr %12, align 4, !tbaa !37
  %82 = call ptr @PMIx_Error_string(i32 noundef %81)
  call void (i32, ptr, ...) @pmix_output(i32 noundef 0, ptr noundef @.str.3, ptr noundef %82, ptr noundef @.str.4, i32 noundef 174)
  br label %83

83:                                               ; preds = %80, %77
  br label %84

84:                                               ; preds = %83
  br label %85

85:                                               ; preds = %84
  %86 = load i32, ptr %12, align 4, !tbaa !37
  store i32 %86, ptr %6, align 4
  store i32 1, ptr %15, align 4
  br label %92

87:                                               ; preds = %73
  %88 = load ptr, ptr %10, align 8, !tbaa !39
  %89 = load i64, ptr %14, align 8, !tbaa !38
  call void @llvm.memcpy.p0.p0.i64(ptr align 1 %88, ptr align 8 %13, i64 %89, i1 false)
  %90 = load i64, ptr %14, align 8, !tbaa !38
  %91 = load ptr, ptr %11, align 8, !tbaa !36
  store i64 %90, ptr %91, align 8, !tbaa !38
  store i32 0, ptr %6, align 4
  store i32 1, ptr %15, align 4
  br label %92

92:                                               ; preds = %87, %85, %41
  call void @llvm.lifetime.end.p0(i64 8, ptr %14) #6
  call void @llvm.lifetime.end.p0(i64 8, ptr %13) #6
  call void @llvm.lifetime.end.p0(i64 4, ptr %12) #6
  %93 = load i32, ptr %6, align 4
  ret i32 %93
}