; Function Attrs: nounwind uwtable
define internal range(i32 -27, 1) i32 @native_decode_int(i16 noundef zeroext %0, ptr noundef readonly captures(none) %1, i64 %2, ptr noundef writeonly captures(none) %3, ptr noundef writeonly captures(none) %4) #0 {
  %6 = alloca i64, align 8
  call void @llvm.lifetime.start.p0(i64 8, ptr nonnull %6)
  store i64 0, ptr %6, align 8, !tbaa !35
  %switch.tableidx = add i16 %0, -4
  %7 = icmp ult i16 %switch.tableidx, 12
  br i1 %7, label %switch.hole_check, label %8

8:                                                ; preds = %switch.hole_check, %5
  %9 = tail call ptr @PMIx_Error_string(i32 noundef -27) #6
  tail call void (i32, ptr, ...) @pmix_output(i32 noundef 0, ptr noundef nonnull @.str.3, ptr noundef %9, ptr noundef nonnull @.str.4, i32 noundef 163) #6
  br label %22

switch.hole_check:                                ; preds = %5
  %switch.shifted = lshr i16 3829, %switch.tableidx
  %switch.lobit = trunc i16 %switch.shifted to i1
  br i1 %switch.lobit, label %switch.lookup, label %8

switch.lookup:                                    ; preds = %switch.hole_check
  %10 = zext nneg i16 %switch.tableidx to i64
  %switch.gep = getelementptr inbounds nuw [12 x i64], ptr @switch.table.native_decode_int, i64 0, i64 %10
  %switch.load = load i64, ptr %switch.gep, align 8
  call void @llvm.memcpy.p0.p0.i64(ptr noundef nonnull align 8 dereferenceable(1) %6, ptr noundef nonnull align 1 dereferenceable(1) %1, i64 %switch.load, i1 false)
  switch i16 %0, label %19 [
    i16 8, label %11
    i16 13, label %11
    i16 6, label %14
    i16 11, label %14
    i16 9, label %14
    i16 14, label %14
    i16 10, label %18
    i16 4, label %18
    i16 15, label %18
  ]

11:                                               ; preds = %switch.lookup, %switch.lookup
  %.0..0..0..0. = load i64, ptr %6, align 8, !tbaa !35
  %12 = trunc i64 %.0..0..0..0. to i16
  %rev.i = tail call noundef i16 @llvm.bswap.i16(i16 %12)
  %13 = zext i16 %rev.i to i64
  br label %21

14:                                               ; preds = %switch.lookup, %switch.lookup, %switch.lookup, %switch.lookup
  %.0..0..0..0.7 = load i64, ptr %6, align 8, !tbaa !35
  %15 = trunc i64 %.0..0..0..0.7 to i32
  %16 = tail call noundef i32 @llvm.bswap.i32(i32 %15)
  %17 = zext i32 %16 to i64
  br label %21

18:                                               ; preds = %switch.lookup, %switch.lookup, %switch.lookup
  %.0..0..0..0.8 = load i64, ptr %6, align 8, !tbaa !35
  %.sroa.0.0.insert.insert.i = tail call noundef i64 @llvm.bswap.i64(i64 %.0..0..0..0.8)
  br label %21

19:                                               ; preds = %switch.lookup
  %20 = tail call ptr @PMIx_Error_string(i32 noundef -27) #6
  tail call void (i32, ptr, ...) @pmix_output(i32 noundef 0, ptr noundef nonnull @.str.3, ptr noundef %20, ptr noundef nonnull @.str.4, i32 noundef 174) #6
  br label %22

21:                                               ; preds = %18, %14, %11
  %.sroa.0.0.insert.insert.i.sink = phi i64 [ %.sroa.0.0.insert.insert.i, %18 ], [ %17, %14 ], [ %13, %11 ]
  store i64 %.sroa.0.0.insert.insert.i.sink, ptr %6, align 8, !tbaa !35
  call void @llvm.memcpy.p0.p0.i64(ptr noundef nonnull align 1 dereferenceable(1) %3, ptr noundef nonnull align 8 dereferenceable(1) %6, i64 %switch.load, i1 false)
  store i64 %switch.load, ptr %4, align 8, !tbaa !35
  br label %22

22:                                               ; preds = %21, %19, %8
  %.0 = phi i32 [ -27, %8 ], [ -27, %19 ], [ 0, %21 ]
  call void @llvm.lifetime.end.p0(i64 8, ptr nonnull %6)
  ret i32 %.0
}